target datalayout = "e-m:e-p270:32:32-p271:32:32-p272:64:64-i64:64-i128:128-f80:128-n8:16:32:64-S128"
target triple = "x86_64-pc-linux-gnu"

%"class.duckdb_re2::Regexp::ParseState" = type { i32, %"class.duckdb_re2::StringPiece", ptr, ptr, i32, i32 }
%"class.duckdb_re2::StringPiece" = type { ptr, i64 }

; Function Attrs: inlinehint mustprogress nounwind uwtable
define linkonce_odr hidden noundef i32 @_ZN10duckdb_re2anENS_6Regexp10ParseFlagsES1_(i32 noundef %0, i32 noundef %1) #3 comdat {
  %3 = alloca i32, align 4
  %4 = alloca i32, align 4
  store i32 %0, ptr %3, align 4, !tbaa !10
  store i32 %1, ptr %4, align 4, !tbaa !10
  %5 = load i32, ptr %3, align 4, !tbaa !10
  %6 = load i32, ptr %4, align 4, !tbaa !10
  %7 = and i32 %5, %6
  ret i32 %7
}

; Function Attrs: mustprogress uwtable
define hidden void @_ZN10duckdb_re26Regexp10ParseStateC2ENS0_10ParseFlagsERKNS_11StringPieceEPNS_12RegexpStatusE(ptr noundef nonnull align 8 dereferenceable(48) %0, i32 noundef %1, ptr noundef nonnull align 8 dereferenceable(16) %2, ptr noundef %3) unnamed_addr #1 align 2 {
  %5 = alloca ptr, align 8
  %6 = alloca i32, align 4
  %7 = alloca ptr, align 8
  %8 = alloca ptr, align 8
  store ptr %0, ptr %5, align 8, !tbaa !7
  store i32 %1, ptr %6, align 4, !tbaa !10
  store ptr %2, ptr %7, align 8, !tbaa !12
  store ptr %3, ptr %8, align 8, !tbaa !14
  %9 = load ptr, ptr %5, align 8
  %10 = getelementptr inbounds nuw %"class.duckdb_re2::Regexp::ParseState", ptr %9, i32 0, i32 0
  %11 = load i32, ptr %6, align 4, !tbaa !10
  store i32 %11, ptr %10, align 8, !tbaa !16
  %12 = getelementptr inbounds nuw %"class.duckdb_re2::Regexp::ParseState", ptr %9, i32 0, i32 1
  %13 = load ptr, ptr %7, align 8, !tbaa !12
  call void @llvm.memcpy.p0.p0.i64(ptr align 8 %12, ptr align 8 %13, i64 16, i1 false), !tbaa.struct !22
  %14 = getelementptr inbounds nuw %"class.duckdb_re2::Regexp::ParseState", ptr %9, i32 0, i32 2
  %15 = load ptr, ptr %8, align 8, !tbaa !14
  store ptr %15, ptr %14, align 8, !tbaa !25
  %16 = getelementptr inbounds nuw %"class.duckdb_re2::Regexp::ParseState", ptr %9, i32 0, i32 3
  store ptr null, ptr %16, align 8, !tbaa !26
  %17 = getelementptr inbounds nuw %"class.duckdb_re2::Regexp::ParseState", ptr %9, i32 0, i32 4
  store i32 0, ptr %17, align 8, !tbaa !27
  %18 = getelementptr inbounds nuw %"class.duckdb_re2::Regexp::ParseState", ptr %9, i32 0, i32 0
  %19 = load i32, ptr %18, align 8, !tbaa !16
  %20 = call noundef i32 @_ZN10duckdb_re2anENS_6Regexp10ParseFlagsES1_(i32 noundef %19, i32 noundef 32)
  %21 = icmp ne i32 %20, 0
  br i1 %21, label %22, label %24

22:                                               ; preds = %4
  %23 = getelementptr inbounds nuw %"class.duckdb_re2::Regexp::ParseState", ptr %9, i32 0, i32 5
  store i32 255, ptr %23, align 4, !tbaa !28
  br label %26

24:                                               ; preds = %4
  %25 = getelementptr inbounds nuw %"class.duckdb_re2::Regexp::ParseState", ptr %9, i32 0, i32 5
  store i32 1114111, ptr %25, align 4, !tbaa !28
  br label %26

26:                                               ; preds = %24, %22
  ret void
}