; Function Attrs: mustprogress nofree norecurse nosync nounwind willreturn memory(argmem: readwrite) uwtable
define hidden void @_ZN10duckdb_re26Regexp10ParseStateC2ENS0_10ParseFlagsERKNS_11StringPieceEPNS_12RegexpStatusE(ptr noundef nonnull writeonly align 8 captures(none) dereferenceable(48) initializes((0, 4), (8, 48)) %0, i32 noundef %1, ptr noundef nonnull readonly align 8 captures(none) dereferenceable(16) %2, ptr noundef %3) unnamed_addr #1 align 2 {
  store i32 %1, ptr %0, align 8, !tbaa !7
  %5 = getelementptr inbounds nuw i8, ptr %0, i64 8
  tail call void @llvm.memcpy.p0.p0.i64(ptr noundef nonnull align 8 dereferenceable(16) %5, ptr noundef nonnull align 8 dereferenceable(16) %2, i64 16, i1 false), !tbaa.struct !16
  %6 = getelementptr inbounds nuw i8, ptr %0, i64 24
  store ptr %3, ptr %6, align 8, !tbaa !19
  %7 = getelementptr inbounds nuw i8, ptr %0, i64 32
  store ptr null, ptr %7, align 8, !tbaa !20
  %8 = getelementptr inbounds nuw i8, ptr %0, i64 40
  store i32 0, ptr %8, align 8, !tbaa !21
  %9 = and i32 %1, 32
  %.not = icmp eq i32 %9, 0
  %spec.select = select i1 %.not, i32 1114111, i32 255
  %10 = getelementptr inbounds nuw i8, ptr %0, i64 44
  store i32 %spec.select, ptr %10, align 4, !tbaa !22
  ret void
}